target datalayout = "e-m:e-p270:32:32-p271:32:32-p272:64:64-i64:64-i128:128-f80:128-n8:16:32:64-S128"
target triple = "x86_64-pc-linux-gnu"

%struct.uv_pipe_s = type { ptr, ptr, i32, ptr, %struct.uv__queue, %union.anon, ptr, i32, i64, ptr, ptr, ptr, ptr, %struct.uv__io_s, %struct.uv__queue, %struct.uv__queue, ptr, i32, i32, ptr, i32, ptr }
%union.anon = type { [4 x ptr] }
%struct.uv__io_s = type { ptr, %struct.uv__queue, %struct.uv__queue, i32, i32, i32 }
%struct.uv__queue = type { ptr, ptr }

; Function Attrs: nounwind uwtable
define dso_local i32 @uv_pipe_open(ptr noundef %0, i32 noundef %1) #0 {
  %3 = alloca i32, align 4
  %4 = alloca ptr, align 8
  %5 = alloca i32, align 4
  %6 = alloca i32, align 4
  %7 = alloca i32, align 4
  %8 = alloca i32, align 4
  %9 = alloca i32, align 4
  store ptr %0, ptr %4, align 8
  store i32 %1, ptr %5, align 4
  call void @llvm.lifetime.start.p0(i64 4, ptr %6) #10
  call void @llvm.lifetime.start.p0(i64 4, ptr %7) #10
  call void @llvm.lifetime.start.p0(i64 4, ptr %8) #10
  store i32 0, ptr %6, align 4
  %10 = load ptr, ptr %4, align 8
  %11 = getelementptr inbounds nuw %struct.uv_pipe_s, ptr %10, i32 0, i32 1
  %12 = load ptr, ptr %11, align 8
  %13 = load i32, ptr %5, align 4
  %14 = call i32 @uv__fd_exists(ptr noundef %12, i32 noundef %13)
  %15 = icmp ne i32 %14, 0
  br i1 %15, label %16, label %17

16:                                               ; preds = %2
  store i32 -17, ptr %3, align 4
  store i32 1, ptr %9, align 4
  br label %63

17:                                               ; preds = %2
  br label %18

18:                                               ; preds = %28, %17
  %19 = load i32, ptr %5, align 4
  %20 = call i32 (i32, i32, ...) @fcntl64(i32 noundef %19, i32 noundef 3)
  store i32 %20, ptr %7, align 4
  br label %21

21:                                               ; preds = %18
  %22 = load i32, ptr %7, align 4
  %23 = icmp eq i32 %22, -1
  br i1 %23, label %24, label %28

24:                                               ; preds = %21
  %25 = call ptr @__errno_location() #11
  %26 = load i32, ptr %25, align 4
  %27 = icmp eq i32 %26, 4
  br label %28

28:                                               ; preds = %24, %21
  %29 = phi i1 [ false, %21 ], [ %27, %24 ]
  br i1 %29, label %18, label %30

30:                                               ; preds = %28
  %31 = load i32, ptr %7, align 4
  %32 = icmp eq i32 %31, -1
  br i1 %32, label %33, label %37

33:                                               ; preds = %30
  %34 = call ptr @__errno_location() #11
  %35 = load i32, ptr %34, align 4
  %36 = sub nsw i32 0, %35
  store i32 %36, ptr %3, align 4
  store i32 1, ptr %9, align 4
  br label %63

37:                                               ; preds = %30
  %38 = load i32, ptr %5, align 4
  %39 = call i32 @uv__nonblock_ioctl(i32 noundef %38, i32 noundef 1)
  store i32 %39, ptr %8, align 4
  %40 = load i32, ptr %8, align 4
  %41 = icmp ne i32 %40, 0
  br i1 %41, label %42, label %44

42:                                               ; preds = %37
  %43 = load i32, ptr %8, align 4
  store i32 %43, ptr %3, align 4
  store i32 1, ptr %9, align 4
  br label %63

44:                                               ; preds = %37
  %45 = load i32, ptr %7, align 4
  %46 = and i32 %45, 3
  store i32 %46, ptr %7, align 4
  %47 = load i32, ptr %7, align 4
  %48 = icmp ne i32 %47, 1
  br i1 %48, label %49, label %52

49:                                               ; preds = %44
  %50 = load i32, ptr %6, align 4
  %51 = or i32 %50, 16384
  store i32 %51, ptr %6, align 4
  br label %52

52:                                               ; preds = %49, %44
  %53 = load i32, ptr %7, align 4
  %54 = icmp ne i32 %53, 0
  br i1 %54, label %55, label %58

55:                                               ; preds = %52
  %56 = load i32, ptr %6, align 4
  %57 = or i32 %56, 32768
  store i32 %57, ptr %6, align 4
  br label %58

58:                                               ; preds = %55, %52
  %59 = load ptr, ptr %4, align 8
  %60 = load i32, ptr %5, align 4
  %61 = load i32, ptr %6, align 4
  %62 = call i32 @uv__stream_open(ptr noundef %59, i32 noundef %60, i32 noundef %61)
  store i32 %62, ptr %3, align 4
  store i32 1, ptr %9, align 4
  br label %63

63:                                               ; preds = %58, %42, %33, %16
  call void @llvm.lifetime.end.p0(i64 4, ptr %8) #10
  call void @llvm.lifetime.end.p0(i64 4, ptr %7) #10
  call void @llvm.lifetime.end.p0(i64 4, ptr %6) #10
  %64 = load i32, ptr %3, align 4
  ret i32 %64
}