; Function Attrs: nounwind uwtable
define dso_local i32 @uv_pipe_open(ptr noundef %0, i32 noundef %1) local_unnamed_addr #0 {
  %3 = getelementptr inbounds nuw i8, ptr %0, i64 8
  %4 = load ptr, ptr %3, align 8
  %5 = tail call i32 @uv__fd_exists(ptr noundef %4, i32 noundef %1) #12
  %.not = icmp eq i32 %5, 0
  br i1 %.not, label %.preheader, label %18

.preheader:                                       ; preds = %2, %8
  %6 = tail call i32 (i32, i32, ...) @fcntl64(i32 noundef %1, i32 noundef 3) #12
  %7 = icmp eq i32 %6, -1
  br i1 %7, label %8, label %.critedge22

8:                                                ; preds = %.preheader
  %9 = tail call ptr @__errno_location() #14
  %10 = load i32, ptr %9, align 4
  %11 = icmp eq i32 %10, 4
  br i1 %11, label %.preheader, label %.critedge

.critedge:                                        ; preds = %8
  %12 = sub nsw i32 0, %10
  br label %18

.critedge22:                                      ; preds = %.preheader
  %13 = tail call i32 @uv__nonblock_ioctl(i32 noundef %1, i32 noundef 1) #12
  %.not19 = icmp eq i32 %13, 0
  br i1 %.not19, label %14, label %18

14:                                               ; preds = %.critedge22
  %15 = and i32 %6, 3
  %.not20 = icmp eq i32 %15, 1
  %.not21 = icmp eq i32 %15, 0
  %16 = select i1 %.not20, i32 32768, i32 49152
  %.1 = select i1 %.not21, i32 16384, i32 %16
  %17 = tail call i32 @uv__stream_open(ptr noundef %0, i32 noundef %1, i32 noundef %.1) #12
  br label %18

18:                                               ; preds = %.critedge22, %2, %14, %.critedge
  %.0 = phi i32 [ %12, %.critedge ], [ %17, %14 ], [ -17, %2 ], [ %13, %.critedge22 ]
  ret i32 %.0
}